; Function Attrs: nofree nosync nounwind memory(readwrite, inaccessiblemem: none) uwtable
define void @Gia_ManMarkTfi_rec(ptr noundef readonly captures(none) %0, ptr noundef %1) local_unnamed_addr #5 {
  %3 = getelementptr inbounds nuw i8, ptr %0, i64 616
  %4 = getelementptr i8, ptr %0, i64 32
  %5 = getelementptr inbounds nuw i8, ptr %0, i64 176
  %6 = load ptr, ptr %3, align 8
  %.val.i14 = load ptr, ptr %4, align 8
  %7 = ptrtoint ptr %1 to i64
  %8 = ptrtoint ptr %.val.i14 to i64
  %9 = sub i64 %7, %8
  %10 = sdiv exact i64 %9, 12
  %sext.i15 = shl i64 %10, 32
  %11 = ashr exact i64 %sext.i15, 30
  %12 = getelementptr inbounds i8, ptr %6, i64 %11
  %13 = load i32, ptr %12, align 4
  %14 = load i32, ptr %5, align 8
  %.not16 = icmp eq i32 %13, %14
  br i1 %.not16, label %._crit_edge, label %.lr.ph

.lr.ph:                                           ; preds = %2, %tailrecurse
  %15 = phi i32 [ %35, %tailrecurse ], [ %14, %2 ]
  %16 = phi ptr [ %33, %tailrecurse ], [ %12, %2 ]
  %.tr1317 = phi ptr [ %26, %tailrecurse ], [ %1, %2 ]
  store i32 %15, ptr %16, align 4
  %.val = load i64, ptr %.tr1317, align 4
  %17 = and i64 %.val, 2147483648
  %.not.i = icmp ne i64 %17, 0
  %18 = and i64 %.val, 536870911
  %19 = icmp eq i64 %18, 536870911
  %narrow.i.not = or i1 %.not.i, %19
  br i1 %narrow.i.not, label %._crit_edge, label %tailrecurse

tailrecurse:                                      ; preds = %.lr.ph
  %20 = sub nsw i64 0, %18
  %21 = getelementptr inbounds %struct.Gia_Obj_t_, ptr %.tr1317, i64 %20
  tail call void @Gia_ManMarkTfi_rec(ptr noundef nonnull %0, ptr noundef nonnull %21)
  %22 = load i64, ptr %.tr1317, align 4
  %23 = lshr i64 %22, 32
  %24 = and i64 %23, 536870911
  %25 = sub nsw i64 0, %24
  %26 = getelementptr inbounds %struct.Gia_Obj_t_, ptr %.tr1317, i64 %25
  %27 = load ptr, ptr %3, align 8
  %.val.i = load ptr, ptr %4, align 8
  %28 = ptrtoint ptr %26 to i64
  %29 = ptrtoint ptr %.val.i to i64
  %30 = sub i64 %28, %29
  %31 = sdiv exact i64 %30, 12
  %sext.i = shl i64 %31, 32
  %32 = ashr exact i64 %sext.i, 30
  %33 = getelementptr inbounds i8, ptr %27, i64 %32
  %34 = load i32, ptr %33, align 4
  %35 = load i32, ptr %5, align 8
  %.not = icmp eq i32 %34, %35
  br i1 %.not, label %._crit_edge, label %.lr.ph

._crit_edge:                                      ; preds = %tailrecurse, %.lr.ph, %2
  ret void
}